target datalayout = "e-m:e-p270:32:32-p271:32:32-p272:64:64-i64:64-i128:128-f80:128-n8:16:32:64-S128"
target triple = "x86_64-pc-linux-gnu"

%"class.std::tuple.233" = type { %"struct.std::_Tuple_impl.234" }
%"struct.std::_Tuple_impl.234" = type { %"struct.std::_Tuple_impl.235", %"struct.std::_Head_base.122" }
%"struct.std::_Tuple_impl.235" = type { %"struct.std::_Head_base.236" }
%"struct.std::_Head_base.236" = type { i32 }
%"struct.std::_Head_base.122" = type { i32 }
%"class.testing::internal::TestFactoryBase" = type { ptr }
%"class.perf::TestBase" = type { %"class.testing::Test", %"class.std::vector.76", %"class.std::vector.76", i32, %"class.std::vector.81", i64, i64, i64, i32, i32, i32, i32, i32, [4 x i8], %"struct.perf::performance_metrics", i8, %"class.perf::TestBase::_declareHelper" }
%"class.testing::Test" = type { ptr, %"class.testing::internal::scoped_ptr.75" }
%"class.testing::internal::scoped_ptr.75" = type { ptr }
%"class.std::vector.76" = type { %"struct.std::_Vector_base.77" }
%"struct.std::_Vector_base.77" = type { %"struct.std::_Vector_base<std::pair<int, cv::Size_<int>>, std::allocator<std::pair<int, cv::Size_<int>>>>::_Vector_impl" }
%"struct.std::_Vector_base<std::pair<int, cv::Size_<int>>, std::allocator<std::pair<int, cv::Size_<int>>>>::_Vector_impl" = type { %"struct.std::_Vector_base<std::pair<int, cv::Size_<int>>, std::allocator<std::pair<int, cv::Size_<int>>>>::_Vector_impl_data" }
%"struct.std::_Vector_base<std::pair<int, cv::Size_<int>>, std::allocator<std::pair<int, cv::Size_<int>>>>::_Vector_impl_data" = type { ptr, ptr, ptr }
%"class.std::vector.81" = type { %"struct.std::_Vector_base.82" }
%"struct.std::_Vector_base.82" = type { %"struct.std::_Vector_base<long, std::allocator<long>>::_Vector_impl" }
%"struct.std::_Vector_base<long, std::allocator<long>>::_Vector_impl" = type { %"struct.std::_Vector_base<long, std::allocator<long>>::_Vector_impl_data" }
%"struct.std::_Vector_base<long, std::allocator<long>>::_Vector_impl_data" = type { ptr, ptr, ptr }
%"struct.perf::performance_metrics" = type <{ i64, i64, i32, i32, double, double, double, double, double, double, double, i32, [4 x i8] }>
%"class.perf::TestBase::_declareHelper" = type { ptr }
%"struct.std::_Head_base.118" = type { i8 }
%"struct.std::_Head_base.120" = type { %"struct.perf::(anonymous namespace)::MatDepth" }
%"struct.perf::(anonymous namespace)::MatDepth" = type { i32 }
%"struct.std::_Head_base.121" = type { %"struct.opencv_test::(anonymous namespace)::(anonymous namespace)::RankEnum" }
%"struct.opencv_test::(anonymous namespace)::(anonymous namespace)::RankEnum" = type { i32 }
%"class.std::tuple.225" = type { %"struct.std::_Tuple_impl.226" }
%"struct.std::_Tuple_impl.226" = type { %"struct.std::_Tuple_impl.227", %"struct.std::_Head_base.232" }
%"struct.std::_Tuple_impl.227" = type { %"struct.std::_Tuple_impl.228", %"struct.std::_Head_base.121" }
%"struct.std::_Tuple_impl.228" = type { %"struct.std::_Tuple_impl.229", %"struct.std::_Head_base.120" }
%"struct.std::_Tuple_impl.229" = type { %"struct.std::_Tuple_impl.230", %"struct.std::_Head_base.231" }
%"struct.std::_Tuple_impl.230" = type { %"struct.std::_Head_base.118" }
%"struct.std::_Head_base.231" = type { i8 }
%"struct.std::_Head_base.232" = type { %"class.std::tuple.233" }
%"class.testing::(anonymous namespace)::ParameterizedTestFactory.237" = type <{ %"class.testing::internal::TestFactoryBase", %"class.std::tuple.225", [4 x i8] }>
%"class.opencv_test::(anonymous namespace)::SvdTest_decompose_decompose_Test" = type <{ %"class.opencv_test::(anonymous namespace)::SvdTest_decompose", i8, [7 x i8] }>
%"class.opencv_test::(anonymous namespace)::SvdTest_decompose" = type { %"class.perf::TestBaseWithParam.238" }
%"class.perf::TestBaseWithParam.238" = type { %"class.perf::TestBase", %"class.testing::WithParamInterface.239" }
%"class.testing::WithParamInterface.239" = type { ptr }

@_ZN7testing8internal12g_parameter_E = external global ptr, align 8

; Function Attrs: inlinehint mustprogress nounwind uwtable
define internal void @_ZN7testing18WithParamInterfaceISt5tupleIJS1_IJiiEEN11opencv_test12_GLOBAL__N_112_GLOBAL__N_18RankEnumEN4perf12_GLOBAL__N_18MatDepthEbbEEEC2Ev(ptr noundef nonnull align 8 dereferenceable(8) %0) unnamed_addr #4 align 2 {
  %2 = alloca ptr, align 8
  store ptr %0, ptr %2, align 8, !tbaa !1003
  %3 = load ptr, ptr %2, align 8
  store ptr getelementptr inbounds inrange(-16, 16) ({ [4 x ptr] }, ptr @_ZTVN7testing18WithParamInterfaceISt5tupleIJS1_IJiiEEN11opencv_test12_GLOBAL__N_112_GLOBAL__N_18RankEnumEN4perf12_GLOBAL__N_18MatDepthEbbEEEE, i32 0, i32 0, i32 2), ptr %3, align 8, !tbaa !24
  ret void
}

; Function Attrs: inlinehint mustprogress uwtable
define internal void @_ZN4perf17TestBaseWithParamISt5tupleIJS1_IJiiEEN11opencv_test12_GLOBAL__N_112_GLOBAL__N_18RankEnumENS_12_GLOBAL__N_18MatDepthEbbEEEC2Ev(ptr noundef nonnull align 8 dereferenceable(256) %0) unnamed_addr #10 align 2 {
  %2 = alloca ptr, align 8
  store ptr %0, ptr %2, align 8, !tbaa !1001
  %3 = load ptr, ptr %2, align 8
  call void @_ZN4perf8TestBaseC2Ev(ptr noundef nonnull align 8 dereferenceable(248) %3)
  %4 = getelementptr inbounds i8, ptr %3, i64 248
  call void @_ZN7testing18WithParamInterfaceISt5tupleIJS1_IJiiEEN11opencv_test12_GLOBAL__N_112_GLOBAL__N_18RankEnumEN4perf12_GLOBAL__N_18MatDepthEbbEEEC2Ev(ptr noundef nonnull align 8 dereferenceable(8) %4) #3
  store ptr getelementptr inbounds inrange(-16, 56) ({ [9 x ptr], [4 x ptr] }, ptr @_ZTVN4perf17TestBaseWithParamISt5tupleIJS1_IJiiEEN11opencv_test12_GLOBAL__N_112_GLOBAL__N_18RankEnumENS_12_GLOBAL__N_18MatDepthEbbEEEE, i32 0, i32 0, i32 2), ptr %3, align 8, !tbaa !24
  %5 = getelementptr inbounds i8, ptr %3, i64 248
  store ptr getelementptr inbounds inrange(-16, 16) ({ [9 x ptr], [4 x ptr] }, ptr @_ZTVN4perf17TestBaseWithParamISt5tupleIJS1_IJiiEEN11opencv_test12_GLOBAL__N_112_GLOBAL__N_18RankEnumENS_12_GLOBAL__N_18MatDepthEbbEEEE, i32 0, i32 1, i32 2), ptr %5, align 8, !tbaa !24
  ret void
}

; Function Attrs: mustprogress uwtable
define internal void @_ZN11opencv_test12_GLOBAL__N_117SvdTest_decomposeC2Ev(ptr noundef nonnull align 8 dereferenceable(256) %0) unnamed_addr #6 align 2 {
  %2 = alloca ptr, align 8
  store ptr %0, ptr %2, align 8, !tbaa !998
  %3 = load ptr, ptr %2, align 8
  call void @_ZN4perf17TestBaseWithParamISt5tupleIJS1_IJiiEEN11opencv_test12_GLOBAL__N_112_GLOBAL__N_18RankEnumENS_12_GLOBAL__N_18MatDepthEbbEEEC2Ev(ptr noundef nonnull align 8 dereferenceable(256) %3)
  store ptr getelementptr inbounds inrange(-16, 56) ({ [9 x ptr], [4 x ptr] }, ptr @_ZTVN11opencv_test12_GLOBAL__N_117SvdTest_decomposeE, i32 0, i32 0, i32 2), ptr %3, align 8, !tbaa !24
  %4 = getelementptr inbounds i8, ptr %3, i64 248
  store ptr getelementptr inbounds inrange(-16, 16) ({ [9 x ptr], [4 x ptr] }, ptr @_ZTVN11opencv_test12_GLOBAL__N_117SvdTest_decomposeE, i32 0, i32 1, i32 2), ptr %4, align 8, !tbaa !24
  ret void
}

; Function Attrs: mustprogress nounwind uwtable
define internal noundef nonnull align 8 dereferenceable(8) ptr @_ZN7testing18WithParamInterfaceISt5tupleIJS1_IJiiEEN11opencv_test12_GLOBAL__N_112_GLOBAL__N_18RankEnumEN4perf12_GLOBAL__N_18MatDepthEbbEEE19GetParameterPtrRef_Ev() #7 align 2 {
  ret ptr @_ZN7testing8internal12g_parameter_E
}

; Function Attrs: mustprogress uwtable
define internal void @_ZN11opencv_test12_GLOBAL__N_132SvdTest_decompose_decompose_TestC2Ev(ptr noundef nonnull align 8 dereferenceable(257) %0) unnamed_addr #6 align 2 {
  %2 = alloca ptr, align 8
  store ptr %0, ptr %2, align 8, !tbaa !991
  %3 = load ptr, ptr %2, align 8
  call void @_ZN11opencv_test12_GLOBAL__N_117SvdTest_decomposeC2Ev(ptr noundef nonnull align 8 dereferenceable(256) %3)
  store ptr getelementptr inbounds inrange(-16, 64) ({ [10 x ptr], [4 x ptr] }, ptr @_ZTVN11opencv_test12_GLOBAL__N_132SvdTest_decompose_decompose_TestE, i32 0, i32 0, i32 2), ptr %3, align 8, !tbaa !24
  %4 = getelementptr inbounds i8, ptr %3, i64 248
  store ptr getelementptr inbounds inrange(-16, 16) ({ [10 x ptr], [4 x ptr] }, ptr @_ZTVN11opencv_test12_GLOBAL__N_132SvdTest_decompose_decompose_TestE, i32 0, i32 1, i32 2), ptr %4, align 8, !tbaa !24
  %5 = getelementptr inbounds nuw %"class.opencv_test::(anonymous namespace)::SvdTest_decompose_decompose_Test", ptr %3, i32 0, i32 1
  store i8 0, ptr %5, align 8, !tbaa !993
  ret void
}

; Function Attrs: mustprogress uwtable
define internal void @_ZN7testing18WithParamInterfaceISt5tupleIJS1_IJiiEEN11opencv_test12_GLOBAL__N_112_GLOBAL__N_18RankEnumEN4perf12_GLOBAL__N_18MatDepthEbbEEE8SetParamEPKSA_(ptr noundef %0) #6 align 2 {
  %2 = alloca ptr, align 8
  store ptr %0, ptr %2, align 8, !tbaa !987
  %3 = load ptr, ptr %2, align 8, !tbaa !987
  %4 = call noundef nonnull align 8 dereferenceable(8) ptr @_ZN7testing18WithParamInterfaceISt5tupleIJS1_IJiiEEN11opencv_test12_GLOBAL__N_112_GLOBAL__N_18RankEnumEN4perf12_GLOBAL__N_18MatDepthEbbEEE19GetParameterPtrRef_Ev()
  store ptr %3, ptr %4, align 8, !tbaa !987
  ret void
}

; Function Attrs: mustprogress uwtable
define internal noundef ptr @_ZN7testing12_GLOBAL__N_124ParameterizedTestFactoryIN11opencv_test12_GLOBAL__N_132SvdTest_decompose_decompose_TestEE10CreateTestEv(ptr noundef nonnull align 8 dereferenceable(28) %0) unnamed_addr #6 align 2 personality ptr @__gxx_personality_v0 {
  %2 = alloca ptr, align 8
  %3 = alloca ptr, align 8
  %4 = alloca i32, align 4
  store ptr %0, ptr %2, align 8, !tbaa !989
  %5 = load ptr, ptr %2, align 8
  %6 = getelementptr inbounds nuw %"class.testing::(anonymous namespace)::ParameterizedTestFactory.237", ptr %5, i32 0, i32 1
  call void @_ZN7testing18WithParamInterfaceISt5tupleIJS1_IJiiEEN11opencv_test12_GLOBAL__N_112_GLOBAL__N_18RankEnumEN4perf12_GLOBAL__N_18MatDepthEbbEEE8SetParamEPKSA_(ptr noundef %6)
  %7 = call noalias noundef nonnull ptr @_Znwm(i64 noundef 264) #25
  invoke void @_ZN11opencv_test12_GLOBAL__N_132SvdTest_decompose_decompose_TestC2Ev(ptr noundef nonnull align 8 dereferenceable(257) %7)
          to label %8 unwind label %9

8:                                                ; preds = %1
  ret ptr %7

9:                                                ; preds = %1
  %10 = landingpad { ptr, i32 }
          cleanup
  %11 = extractvalue { ptr, i32 } %10, 0
  store ptr %11, ptr %3, align 8
  %12 = extractvalue { ptr, i32 } %10, 1
  store i32 %12, ptr %4, align 4
  call void @_ZdlPv(ptr noundef %7) #26
  br label %13

13:                                               ; preds = %9
  %14 = load ptr, ptr %3, align 8
  %15 = load i32, ptr %4, align 4
  %16 = insertvalue { ptr, i32 } poison, ptr %14, 0
  %17 = insertvalue { ptr, i32 } %16, i32 %15, 1
  resume { ptr, i32 } %17
}